(dp0
S'ar1'
p1
(lp2
g1
aF0.582
aF0.734
aF0.621
aF0.0
aF0.618
aF0.07400000000000007
aF0.686
aF0.025999999999999912
aF0.696
aF0.0129999999999999
aF0.691
aF0.018999999999999906
asS'camel-1.0'
p3
(lp4
g3
aF0.55
aF0.639
aF0.556
aF0.0
aF0.657
aF0.041000000000000036
aF0.654
aF0.0050000000000000044
aF0.626
aF0.04700000000000004
aF0.617
aF0.05600000000000005
asS'ar4'
p5
(lp6
g5
aF0.657
aF0.816
aF0.536
aF0.0
aF0.672
aF0.10999999999999999
aF0.758
aF0.09000000000000008
aF0.775
aF0.08900000000000008
aF0.784
aF0.122
asS'ar5'
p7
(lp8
g7
aF0.804
aF0.911
aF0.863
aF0.0
aF0.671
aF0.20799999999999996
aF0.694
aF0.132
aF0.76
aF0.10499999999999998
aF0.731
aF0.268
asS'JM1'
p9
(lp10
g9
aI0
aI0
aF0.688
aF0.0
aF0.639
aF0.03300000000000003
aF0.665
aF0.03700000000000003
aF0.668
aF0.017000000000000015
aF0.667
aF0.01100000000000001
asS'skarbonka'
p11
(lp12
g11
aF0.569
aF0.694
aF0.696
aF0.0
aF0.673
aF0.04299999999999993
aF0.695
aF0.030999999999999917
aF0.674
aF0.038999999999999924
aF0.685
aF0.02299999999999991
asS'poi-1.5'
p13
(lp14
g13
aF0.707
aF0.701
aF0.665
aF0.0
aF0.63
aF0.06500000000000006
aF0.635
aF0.07599999999999996
aF0.639
aF0.07799999999999996
aF0.625
aF0.08000000000000007
asS'safe'
p15
(lp16
g15
aF0.706
aF0.818
aF0.589
aF0.0
aF0.589
aF0.03400000000000003
aF0.641
aF0.05800000000000005
aF0.645
aF0.08200000000000007
aF0.599
aF0.06900000000000006
asS'PC5'
p17
(lp18
g17
aI0
aI0
aF0.885
aF0.0
aF0.908
aF0.06400000000000006
aF0.915
aF0.028000000000000025
aF0.907
aF0.04299999999999993
aF0.907
aF0.09100000000000008
asS'arc'
p19
(lp20
g19
aF0.67
aF0.701
aF0.669
aF0.0
aF0.651
aF0.04200000000000004
aF0.671
aF0.01200000000000001
aF0.651
aF0.02100000000000002
aF0.667
aF0.03400000000000003
asS'velocity-1.4'
p21
(lp22
g21
aF0.725
aF0.391
aF0.449
aF0.0
aF0.495
aF0.02400000000000002
aF0.484
aF0.045999999999999985
aF0.506
aF0.04700000000000004
aF0.504
aF0.009000000000000008
asS'KC3'
p23
(lp24
g23
aI0
aI0
aF0.648
aF0.0
aF0.617
aF0.05400000000000005
aF0.649
aF0.018000000000000016
aF0.657
aF0.015000000000000013
aF0.659
aF0.009000000000000008
asS'apache'
p25
(lp26
g25
aF0.714
aF0.717
aF0.615
aF0.0
aF0.633
aF0.02300000000000002
aF0.63
aF0.007000000000000006
aF0.63
aF0.0050000000000000044
aF0.627
aF0.0040000000000000036
asS'JDT'
p27
(lp28
g27
aF0.795
aF0.767
aF0.692
aF0.0
aF0.64
aF0.07200000000000006
aF0.657
aF0.03600000000000003
aF0.663
aF0.03200000000000003
aF0.655
aF0.03500000000000003
asS'PDE'
p29
(lp30
g29
aF0.684
aF0.717
aF0.685
aF0.0
aF0.607
aF0.06700000000000006
aF0.618
aF0.04400000000000004
aF0.648
aF0.05600000000000005
aF0.615
aF0.06600000000000006
asS'ant-1.3'
p31
(lp32
g31
aF0.609
aF0.835
aF0.655
aF0.0
aF0.688
aF0.06099999999999994
aF0.703
aF0.06799999999999995
aF0.687
aF0.07099999999999995
aF0.655
aF0.05699999999999994
asS'EQ'
p33
(lp34
g33
aF0.583
aF0.783
aF0.669
aF0.0
aF0.734
aF0.05900000000000005
aF0.735
aF0.062000000000000055
aF0.724
aF0.06299999999999994
aF0.679
aF0.06699999999999995
asS'MC2'
p35
(lp36
g35
aI0
aI0
aF0.683
aF0.0
aF0.634
aF0.04600000000000004
aF0.68
aF0.007000000000000006
aF0.683
aF0.0
aF0.683
aF0.0
asS'ar6'
p37
(lp38
g37
aF0.654
aF0.64
aF0.44
aF0.0
aF0.596
aF0.039000000000000035
aF0.655
aF0.05500000000000005
aF0.642
aF0.04400000000000004
aF0.622
aF0.04400000000000004
asS'MW1'
p39
(lp40
g39
aF0.612
aF0.727
aF0.722
aF0.0
aF0.582
aF0.09800000000000009
aF0.694
aF0.03299999999999992
aF0.704
aF0.031000000000000028
aF0.722
aF0.015000000000000013
asS'LC'
p41
(lp42
g41
aF0.575
aF0.655
aF0.629
aF0.0
aF0.623
aF0.07100000000000006
aF0.629
aF0.04800000000000004
aF0.619
aF0.04400000000000004
aF0.601
aF0.06000000000000005
asS'tomcat'
p43
(lp44
g43
aF0.778
aF0.818
aF0.766
aF0.0
aF0.712
aF0.06299999999999994
aF0.738
aF0.03400000000000003
aF0.726
aF0.09599999999999997
aF0.679
aF0.08899999999999997
asS'PC2'
p45
(lp46
g45
aI0
aI0
aF0.888
aF0.0
aF0.838
aF0.09999999999999998
aF0.869
aF0.03700000000000003
aF0.817
aF0.051999999999999935
aF0.822
aF0.07099999999999995
asS'ML'
p47
(lp48
g47
aF0.734
aF0.692
aF0.593
aF0.0
aF0.621
aF0.030000000000000027
aF0.625
aF0.028000000000000025
aF0.629
aF0.03200000000000003
aF0.615
aF0.03400000000000003
asS'PC1'
p49
(lp50
g49
aF0.787
aF0.752
aF0.697
aF0.0
aF0.63
aF0.04600000000000004
aF0.681
aF0.02499999999999991
aF0.692
aF0.050999999999999934
aF0.659
aF0.05699999999999994
asS'xerces-1.2'
p51
(lp52
g51
aF0.624
aF0.489
aF0.485
aF0.0
aF0.489
aF0.008000000000000007
aF0.487
aF0.0050000000000000044
aF0.489
aF0.0040000000000000036
aF0.489
aF0.0040000000000000036
asS'zxing'
p53
(lp54
g53
aF0.605
aF0.65
aF0.634
aF0.0
aF0.58
aF0.03400000000000003
aF0.599
aF0.026000000000000023
aF0.603
aF0.03600000000000003
aF0.605
aF0.026000000000000023
asS'PC4'
p55
(lp56
g55
aF0.9
aF0.682
aF0.681
aF0.0
aF0.602
aF0.07500000000000007
aF0.643
aF0.04500000000000004
aF0.657
aF0.04800000000000004
aF0.657
aF0.040000000000000036
asS'ar3'
p57
(lp58
g57
aF0.574
aF0.823
aF0.699
aF0.0
aF0.775
aF0.09400000000000008
aF0.813
aF0.04599999999999993
aF0.811
aF0.124
aF0.78
aF0.125
asS'PC3'
p59
(lp60
g59
aF0.794
aF0.738
aF0.728
aF0.0
aF0.635
aF0.05400000000000005
aF0.66
aF0.05799999999999994
aF0.661
aF0.07399999999999995
aF0.689
aF0.05399999999999994
asS'xalan-2.4'
p61
(lp62
g61
aF0.755
aF0.751
aF0.645
aF0.0
aF0.663
aF0.040999999999999925
aF0.673
aF0.02100000000000002
aF0.665
aF0.02400000000000002
aF0.665
aF0.039000000000000035
asS'redaktor'
p63
(lp64
g63
aF0.744
aF0.537
aF0.513
aF0.0
aF0.514
aF0.02100000000000002
aF0.515
aF0.016000000000000014
aF0.514
aF0.020000000000000018
aF0.518
aF0.020000000000000018
asS'method'
p65
(lp66
S'Target'
p67
aS'WPDP'
p68
aS'HDP-JC'
p69
aS'HDP-Scipy'
p70
aS'HDP-Scipy-IQR'
p71
aS'N-50'
p72
aS'N-50-IQR'
p73
aS'N-100'
p74
aS'N-100-IQR'
p75
aS'N-150'
p76
aS'N-150-IQR'
p77
aS'N-200'
p78
aS'N-200-IQR'
p79
asS'CM1'
p80
(lp81
g80
aF0.653
aF0.717
aF0.677
aF0.0
aF0.601
aF0.052000000000000046
aF0.646
aF0.015000000000000013
aF0.655
aF0.028000000000000025
aF0.657
aF0.02300000000000002
as.