(dp0
S'ar1'
p1
(lp2
g1
aF0.582
aF0.727
aF0.73
aF0.0
aF0.702
aF0.016000000000000014
aF0.706
aF0.016000000000000014
aF0.712
aF0.025000000000000022
aF0.71
aF0.02300000000000002
asS'camel-1.0'
p3
(lp4
g3
aF0.55
aF0.639
aF0.689
aF0.0
aF0.666
aF0.019000000000000017
aF0.667
aF0.03399999999999992
aF0.669
aF0.03799999999999992
aF0.655
aF0.04399999999999993
asS'ar4'
p5
(lp6
g5
aF0.657
aF0.798
aF0.791
aF0.0
aF0.78
aF0.038000000000000034
aF0.784
aF0.02200000000000002
aF0.792
aF0.016000000000000014
aF0.796
aF0.007000000000000006
asS'ar5'
p7
(lp8
g7
aF0.804
aF0.902
aF0.901
aF0.0
aF0.853
aF0.10899999999999999
aF0.863
aF0.15300000000000002
aF0.861
aF0.050000000000000044
aF0.847
aF0.11299999999999999
asS'JM1'
p9
(lp10
g9
aF0.705
aF0.685
aF0.681
aF0.0
aF0.665
aF0.020000000000000018
aF0.673
aF0.013000000000000012
aF0.675
aF0.008000000000000007
aF0.672
aF0.010000000000000009
asS'skarbonka'
p11
(lp12
g11
aF0.569
aF0.688
aF0.694
aF0.0
aF0.694
aF0.03299999999999992
aF0.683
aF0.028999999999999915
aF0.682
aF0.0129999999999999
aF0.672
aF0.017000000000000015
asS'poi-1.5'
p13
(lp14
g13
aF0.707
aF0.547
aF0.546
aF0.0
aF0.708
aF0.02400000000000002
aF0.702
aF0.06299999999999994
aF0.673
aF0.131
aF0.556
aF0.08799999999999997
asS'safe'
p15
(lp16
g15
aF0.706
aF0.652
aF0.711
aF0.0
aF0.7
aF0.014000000000000012
aF0.706
aF0.04200000000000004
aF0.702
aF0.040000000000000036
aF0.703
aF0.04700000000000004
asS'PC5'
p17
(lp18
g17
aF0.954
aF0.806
aF0.806
aF0.0
aF0.948
aF0.01200000000000001
aF0.946
aF0.020999999999999908
aF0.944
aF0.03399999999999992
aF0.926
aF0.040999999999999925
asS'arc'
p19
(lp20
g19
aF0.67
aF0.701
aF0.7
aF0.0
aF0.672
aF0.01200000000000001
aF0.67
aF0.016000000000000014
aF0.679
aF0.041999999999999926
aF0.653
aF0.04399999999999993
asS'velocity-1.4'
p21
(lp22
g21
aF0.725
aF0.476
aF0.504
aF0.0
aF0.456
aF0.03899999999999998
aF0.472
aF0.04299999999999998
aF0.469
aF0.04799999999999999
aF0.478
aF0.05499999999999999
asS'KC3'
p23
(lp24
g23
aF0.609
aF0.678
aF0.663
aF0.0
aF0.635
aF0.05400000000000005
aF0.657
aF0.018000000000000016
aF0.661
aF0.015000000000000013
aF0.659
aF0.013000000000000012
asS'apache'
p25
(lp26
g25
aF0.714
aF0.664
aF0.646
aF0.0
aF0.663
aF0.02300000000000002
aF0.639
aF0.02400000000000002
aF0.639
aF0.020000000000000018
aF0.639
aF0.026000000000000023
asS'JDT'
p27
(lp28
g27
aF0.795
aF0.693
aF0.683
aF0.0
aF0.724
aF0.05500000000000005
aF0.714
aF0.05800000000000005
aF0.72
aF0.052000000000000046
aF0.724
aF0.06500000000000006
asS'PDE'
p29
(lp30
g29
aF0.684
aF0.726
aF0.673
aF0.0
aF0.667
aF0.04600000000000004
aF0.667
aF0.04399999999999993
aF0.667
aF0.03400000000000003
aF0.666
aF0.028000000000000025
asS'ant-1.3'
p31
(lp32
g31
aF0.609
aF0.675
aF0.758
aF0.0
aF0.746
aF0.040000000000000036
aF0.706
aF0.04699999999999993
aF0.716
aF0.03400000000000003
aF0.716
aF0.05800000000000005
asS'EQ'
p33
(lp34
g33
aF0.583
aF0.747
aF0.736
aF0.0
aF0.762
aF0.02100000000000002
aF0.766
aF0.014000000000000012
aF0.749
aF0.007000000000000006
aF0.749
aF0.010000000000000009
asS'MC2'
p35
(lp36
g35
aF0.646
aF0.677
aF0.688
aF0.0
aF0.663
aF0.04200000000000004
aF0.671
aF0.026000000000000023
aF0.661
aF0.038000000000000034
aF0.659
aF0.01100000000000001
asS'ar6'
p37
(lp38
g37
aF0.654
aF0.667
aF0.647
aF0.0
aF0.599
aF0.07300000000000006
aF0.639
aF0.03400000000000003
aF0.636
aF0.030000000000000027
aF0.632
aF0.03500000000000003
asS'MW1'
p39
(lp40
g39
aF0.612
aF0.63
aF0.721
aF0.0
aF0.702
aF0.029999999999999916
aF0.705
aF0.02100000000000002
aF0.711
aF0.015000000000000013
aF0.718
aF0.01200000000000001
asS'LC'
p41
(lp42
g41
aF0.575
aF0.638
aF0.642
aF0.0
aF0.646
aF0.01200000000000001
aF0.643
aF0.009000000000000008
aF0.643
aF0.010000000000000009
aF0.643
aF0.010000000000000009
asS'tomcat'
p43
(lp44
g43
aF0.778
aF0.756
aF0.756
aF0.0
aF0.752
aF0.04400000000000004
aF0.748
aF0.006000000000000005
aF0.766
aF0.03200000000000003
aF0.766
aF0.02200000000000002
asS'PC2'
p45
(lp46
g45
aF0.748
aF0.884
aF0.879
aF0.0
aF0.808
aF0.04899999999999993
aF0.874
aF0.01200000000000001
aF0.879
aF0.019000000000000017
aF0.877
aF0.031000000000000028
asS'ML'
p47
(lp48
g47
aF0.734
aF0.651
aF0.692
aF0.0
aF0.647
aF0.038000000000000034
aF0.643
aF0.009000000000000008
aF0.659
aF0.026000000000000023
aF0.657
aF0.030000000000000027
asS'PC1'
p49
(lp50
g49
aF0.787
aF0.696
aF0.693
aF0.0
aF0.669
aF0.05899999999999994
aF0.682
aF0.04799999999999993
aF0.683
aF0.02399999999999991
aF0.683
aF0.019999999999999907
asS'xerces-1.2'
p51
(lp52
g51
aF0.624
aF0.5
aF0.489
aF0.0
aF0.482
aF0.0030000000000000027
aF0.484
aF0.007000000000000006
aF0.489
aF0.0040000000000000036
aF0.489
aF0.006000000000000005
asS'zxing'
p53
(lp54
g53
aF0.605
aF0.635
aF0.632
aF0.0
aF0.625
aF0.013000000000000012
aF0.633
aF0.008000000000000007
aF0.625
aF0.016000000000000014
aF0.622
aF0.0050000000000000044
asS'PC4'
p55
(lp56
g55
aF0.9
aF0.668
aF0.684
aF0.0
aF0.652
aF0.03600000000000003
aF0.671
aF0.017000000000000015
aF0.671
aF0.039000000000000035
aF0.667
aF0.02400000000000002
asS'ar3'
p57
(lp58
g57
aF0.574
aF0.823
aF0.836
aF0.0
aF0.821
aF0.04299999999999993
aF0.828
aF0.007000000000000006
aF0.831
aF0.01100000000000001
aF0.832
aF0.007000000000000006
asS'PC3'
p59
(lp60
g59
aF0.794
aF0.73
aF0.67
aF0.0
aF0.659
aF0.06699999999999995
aF0.68
aF0.04699999999999993
aF0.665
aF0.04799999999999993
aF0.661
aF0.05699999999999994
asS'xalan-2.4'
p61
(lp62
g61
aF0.755
aF0.661
aF0.66
aF0.0
aF0.681
aF0.03299999999999992
aF0.685
aF0.02299999999999991
aF0.67
aF0.026999999999999913
aF0.672
aF0.016000000000000014
asS'redaktor'
p63
(lp64
g63
aF0.744
aF0.499
aF0.513
aF0.0
aF0.515
aF0.026000000000000023
aF0.51
aF0.010000000000000009
aF0.508
aF0.0020000000000000018
aF0.508
aF0.009000000000000008
asS'method'
p65
(lp66
S'Target'
p67
aS'WPDP'
p68
aS'HDP-JC'
p69
aS'HDP-Scipy'
p70
aS'HDP-Scipy-IQR'
p71
aS'N-50'
p72
aS'N-50-IQR'
p73
aS'N-100'
p74
aS'N-100-IQR'
p75
aS'N-150'
p76
aS'N-150-IQR'
p77
aS'N-200'
p78
aS'N-200-IQR'
p79
asS'CM1'
p80
(lp81
g80
aF0.653
aF0.704
aF0.653
aF0.0
aF0.648
aF0.031000000000000028
aF0.649
aF0.02200000000000002
aF0.653
aF0.01100000000000001
aF0.648
aF0.027000000000000024
as.